target datalayout = "e-m:e-p270:32:32-p271:32:32-p272:64:64-i64:64-i128:128-f80:128-n8:16:32:64-S128"
target triple = "x86_64-pc-linux-gnu"

; Function Attrs: mustprogress nounwind uwtable
define dso_local noundef ptr @_ZN4enki16DefaultAllocFuncEmmPvPKci(i64 noundef %0, i64 noundef %1, ptr noundef %2, ptr noundef %3, i32 noundef %4) #5 {
  %6 = alloca i64, align 8
  %7 = alloca i64, align 8
  %8 = alloca ptr, align 8
  %9 = alloca ptr, align 8
  %10 = alloca i32, align 4
  %11 = alloca ptr, align 8
  %12 = alloca i32, align 4
  store i64 %0, ptr %6, align 8, !tbaa !56
  store i64 %1, ptr %7, align 8, !tbaa !56
  store ptr %2, ptr %8, align 8, !tbaa !58
  store ptr %3, ptr %9, align 8, !tbaa !59
  store i32 %4, ptr %10, align 4, !tbaa !11
  call void @llvm.lifetime.start.p0(i64 8, ptr %11) #14
  store ptr null, ptr %11, align 8, !tbaa !58
  %13 = load i64, ptr %6, align 8, !tbaa !56
  %14 = load i64, ptr %7, align 8, !tbaa !56
  %15 = icmp ule i64 %13, %14
  br i1 %15, label %16, label %22

16:                                               ; preds = %5
  %17 = load i64, ptr %6, align 8, !tbaa !56
  %18 = icmp ule i64 %17, 8
  br i1 %18, label %19, label %22

19:                                               ; preds = %16
  %20 = load i64, ptr %7, align 8, !tbaa !56
  %21 = call noalias ptr @malloc(i64 noundef %20) #19
  store ptr %21, ptr %11, align 8, !tbaa !58
  br label %26

22:                                               ; preds = %16, %5
  call void @llvm.lifetime.start.p0(i64 4, ptr %12) #14
  %23 = load i64, ptr %6, align 8, !tbaa !56
  %24 = load i64, ptr %7, align 8, !tbaa !56
  %25 = call i32 @posix_memalign(ptr noundef %11, i64 noundef %23, i64 noundef %24) #14
  store i32 %25, ptr %12, align 4, !tbaa !11
  call void @llvm.lifetime.end.p0(i64 4, ptr %12) #14
  br label %26

26:                                               ; preds = %22, %19
  %27 = load ptr, ptr %11, align 8, !tbaa !58
  call void @llvm.lifetime.end.p0(i64 8, ptr %11) #14
  ret ptr %27
}