; Function Attrs: mustprogress nofree nounwind uwtable
define dso_local noundef ptr @_ZN4enki16DefaultAllocFuncEmmPvPKci(i64 noundef %0, i64 noundef %1, ptr readnone captures(none) %2, ptr readnone captures(none) %3, i32 %4) #7 {
  %6 = alloca ptr, align 8
  call void @llvm.lifetime.start.p0(i64 8, ptr nonnull %6) #26
  store ptr null, ptr %6, align 8, !tbaa !58
  %7 = icmp ule i64 %0, %1
  %8 = icmp ult i64 %0, 9
  %or.cond = and i1 %8, %7
  br i1 %or.cond, label %9, label %11

9:                                                ; preds = %5
  %10 = tail call noalias ptr @malloc(i64 noundef %1) #31
  br label %13

11:                                               ; preds = %5
  %12 = call i32 @posix_memalign(ptr noundef nonnull %6, i64 noundef %0, i64 noundef %1) #26
  %.pre = load ptr, ptr %6, align 8, !tbaa !58
  br label %13

13:                                               ; preds = %11, %9
  %14 = phi ptr [ %.pre, %11 ], [ %10, %9 ]
  call void @llvm.lifetime.end.p0(i64 8, ptr nonnull %6) #26
  ret ptr %14
}